target datalayout = "e-m:e-p270:32:32-p271:32:32-p272:64:64-i64:64-i128:128-f80:128-n8:16:32:64-S128"
target triple = "x86_64-pc-linux-gnu"

%struct.asn1_string_st = type { i32, i32, ptr, i64 }

@rb_eTypeError = external global i64, align 8
@.str.9 = private unnamed_addr constant [22 x i8] c"ASN1_INTEGER is NULL!\00", align 1
@eOSSLError = external global i64, align 8

; Function Attrs: nounwind sspstrong uwtable
define i64 @asn1integer_to_num(ptr noundef %0) #0 {
  %2 = alloca ptr, align 8
  %3 = alloca ptr, align 8
  %4 = alloca i64, align 8
  store ptr %0, ptr %2, align 8, !tbaa !6
  call void @llvm.lifetime.start.p0(i64 8, ptr %3) #16
  call void @llvm.lifetime.start.p0(i64 8, ptr %4) #16
  %5 = load ptr, ptr %2, align 8, !tbaa !6
  %6 = icmp ne ptr %5, null
  br i1 %6, label %9, label %7

7:                                                ; preds = %1
  %8 = load i64, ptr @rb_eTypeError, align 8, !tbaa !20
  call void (i64, ptr, ...) @ossl_raise(i64 noundef %8, ptr noundef @.str.9) #17
  unreachable

9:                                                ; preds = %1
  %10 = load ptr, ptr %2, align 8, !tbaa !6
  %11 = getelementptr inbounds nuw %struct.asn1_string_st, ptr %10, i32 0, i32 1
  %12 = load i32, ptr %11, align 4, !tbaa !11
  %13 = icmp eq i32 %12, 10
  br i1 %13, label %14, label %17

14:                                               ; preds = %9
  %15 = load ptr, ptr %2, align 8, !tbaa !6
  %16 = call ptr @ASN1_ENUMERATED_to_BN(ptr noundef %15, ptr noundef null)
  store ptr %16, ptr %3, align 8, !tbaa !35
  br label %20

17:                                               ; preds = %9
  %18 = load ptr, ptr %2, align 8, !tbaa !6
  %19 = call ptr @ASN1_INTEGER_to_BN(ptr noundef %18, ptr noundef null)
  store ptr %19, ptr %3, align 8, !tbaa !35
  br label %20

20:                                               ; preds = %17, %14
  %21 = load ptr, ptr %3, align 8, !tbaa !35
  %22 = icmp ne ptr %21, null
  br i1 %22, label %25, label %23

23:                                               ; preds = %20
  %24 = load i64, ptr @eOSSLError, align 8, !tbaa !20
  call void (i64, ptr, ...) @ossl_raise(i64 noundef %24, ptr noundef null) #17
  unreachable

25:                                               ; preds = %20
  %26 = load ptr, ptr %3, align 8, !tbaa !35
  %27 = call i64 @ossl_bn_new(ptr noundef %26)
  store i64 %27, ptr %4, align 8, !tbaa !20
  %28 = load ptr, ptr %3, align 8, !tbaa !35
  call void @BN_free(ptr noundef %28)
  %29 = load i64, ptr %4, align 8, !tbaa !20
  call void @llvm.lifetime.end.p0(i64 8, ptr %4) #16
  call void @llvm.lifetime.end.p0(i64 8, ptr %3) #16
  ret i64 %29
}