; Function Attrs: nounwind sspstrong uwtable
define i64 @asn1integer_to_num(ptr noundef %0) local_unnamed_addr #0 {
  %.not = icmp eq ptr %0, null
  br i1 %.not, label %2, label %4

2:                                                ; preds = %1
  %3 = load i64, ptr @rb_eTypeError, align 8, !tbaa !17
  tail call void (i64, ptr, ...) @ossl_raise(i64 noundef %3, ptr noundef nonnull @.str.9) #10
  unreachable

4:                                                ; preds = %1
  %5 = getelementptr inbounds nuw i8, ptr %0, i64 4
  %6 = load i32, ptr %5, align 4, !tbaa !6
  %7 = icmp eq i32 %6, 10
  br i1 %7, label %8, label %10

8:                                                ; preds = %4
  %9 = tail call ptr @ASN1_ENUMERATED_to_BN(ptr noundef nonnull %0, ptr noundef null) #9
  br label %12

10:                                               ; preds = %4
  %11 = tail call ptr @ASN1_INTEGER_to_BN(ptr noundef nonnull %0, ptr noundef null) #9
  br label %12

12:                                               ; preds = %10, %8
  %.0 = phi ptr [ %9, %8 ], [ %11, %10 ]
  %.not8 = icmp eq ptr %.0, null
  br i1 %.not8, label %13, label %15

13:                                               ; preds = %12
  %14 = load i64, ptr @eOSSLError, align 8, !tbaa !17
  tail call void (i64, ptr, ...) @ossl_raise(i64 noundef %14, ptr noundef null) #10
  unreachable

15:                                               ; preds = %12
  %16 = tail call i64 @ossl_bn_new(ptr noundef nonnull %.0) #9
  tail call void @BN_free(ptr noundef nonnull %.0) #9
  ret i64 %16
}